target datalayout = "e-m:e-p270:32:32-p271:32:32-p272:64:64-i64:64-i128:128-f80:128-n8:16:32:64-S128"
target triple = "x86_64-pc-linux-gnu"

%struct.Abc_Ntk_t_ = type { i32, i32, ptr, ptr, ptr, ptr, ptr, ptr, ptr, ptr, ptr, ptr, ptr, [11 x i32], i32, i32, i32, i32, ptr, i32, ptr, ptr, i32, i32, i32, double, i32, %struct.Vec_Int_t_, ptr, ptr, ptr, ptr, ptr, float, i32, ptr, ptr, ptr, ptr, ptr, ptr, ptr, ptr, ptr, ptr, ptr, ptr, ptr, ptr, ptr, ptr, ptr, ptr, ptr, ptr, ptr }
%struct.Vec_Int_t_ = type { i32, i32, ptr }
%struct.Abc_ManTime_t_ = type { %struct.Abc_Time_t_, %struct.Abc_Time_t_, ptr, ptr, %struct.Abc_Time_t_, %struct.Abc_Time_t_, ptr, ptr }
%struct.Abc_Time_t_ = type { float, float }
%struct.Abc_Obj_t_ = type { ptr, ptr, i32, i32, %struct.Vec_Int_t_, %struct.Vec_Int_t_, %union.anon, %union.anon.0 }
%union.anon = type { ptr }
%union.anon.0 = type { ptr }
%struct.Vec_Ptr_t_ = type { i32, i32, ptr }

; Function Attrs: nounwind uwtable
define internal ptr @Vec_PtrEntry(ptr noundef %0, i32 noundef %1) #0 {
  %3 = alloca ptr, align 8
  %4 = alloca i32, align 4
  store ptr %0, ptr %3, align 8
  store i32 %1, ptr %4, align 4
  %5 = load ptr, ptr %3, align 8
  %6 = getelementptr inbounds %struct.Vec_Ptr_t_, ptr %5, i32 0, i32 2
  %7 = load ptr, ptr %6, align 8
  %8 = load i32, ptr %4, align 4
  %9 = sext i32 %8 to i64
  %10 = getelementptr inbounds ptr, ptr %7, i64 %9
  %11 = load ptr, ptr %10, align 8
  ret ptr %11
}

; Function Attrs: nounwind uwtable
define internal i32 @Vec_PtrSize(ptr noundef %0) #0 {
  %2 = alloca ptr, align 8
  store ptr %0, ptr %2, align 8
  %3 = load ptr, ptr %2, align 8
  %4 = getelementptr inbounds %struct.Vec_Ptr_t_, ptr %3, i32 0, i32 1
  %5 = load i32, ptr %4, align 4
  ret i32 %5
}

; Function Attrs: nounwind uwtable
define internal ptr @Abc_NtkCo(ptr noundef %0, i32 noundef %1) #0 {
  %3 = alloca ptr, align 8
  %4 = alloca i32, align 4
  store ptr %0, ptr %3, align 8
  store i32 %1, ptr %4, align 4
  %5 = load ptr, ptr %3, align 8
  %6 = getelementptr inbounds %struct.Abc_Ntk_t_, ptr %5, i32 0, i32 9
  %7 = load ptr, ptr %6, align 8
  %8 = load i32, ptr %4, align 4
  %9 = call ptr @Vec_PtrEntry(ptr noundef %7, i32 noundef %8)
  ret ptr %9
}

; Function Attrs: nounwind uwtable
define internal i32 @Abc_NtkCoNum(ptr noundef %0) #0 {
  %2 = alloca ptr, align 8
  store ptr %0, ptr %2, align 8
  %3 = load ptr, ptr %2, align 8
  %4 = getelementptr inbounds %struct.Abc_Ntk_t_, ptr %3, i32 0, i32 9
  %5 = load ptr, ptr %4, align 8
  %6 = call i32 @Vec_PtrSize(ptr noundef %5)
  ret i32 %6
}

; Function Attrs: nounwind uwtable
define internal ptr @Abc_NtkCi(ptr noundef %0, i32 noundef %1) #0 {
  %3 = alloca ptr, align 8
  %4 = alloca i32, align 4
  store ptr %0, ptr %3, align 8
  store i32 %1, ptr %4, align 4
  %5 = load ptr, ptr %3, align 8
  %6 = getelementptr inbounds %struct.Abc_Ntk_t_, ptr %5, i32 0, i32 8
  %7 = load ptr, ptr %6, align 8
  %8 = load i32, ptr %4, align 4
  %9 = call ptr @Vec_PtrEntry(ptr noundef %7, i32 noundef %8)
  ret ptr %9
}

; Function Attrs: nounwind uwtable
define internal i32 @Abc_NtkCiNum(ptr noundef %0) #0 {
  %2 = alloca ptr, align 8
  store ptr %0, ptr %2, align 8
  %3 = load ptr, ptr %2, align 8
  %4 = getelementptr inbounds %struct.Abc_Ntk_t_, ptr %3, i32 0, i32 8
  %5 = load ptr, ptr %4, align 8
  %6 = call i32 @Vec_PtrSize(ptr noundef %5)
  ret i32 %6
}

; Function Attrs: nounwind uwtable
define void @Abc_NtkTimeScale(ptr noundef %0, float noundef %1) #0 {
  %3 = alloca ptr, align 8
  %4 = alloca float, align 4
  %5 = alloca ptr, align 8
  %6 = alloca ptr, align 8
  %7 = alloca ptr, align 8
  %8 = alloca i32, align 4
  store ptr %0, ptr %3, align 8
  store float %1, ptr %4, align 4
  %9 = load ptr, ptr %3, align 8
  %10 = getelementptr inbounds %struct.Abc_Ntk_t_, ptr %9, i32 0, i32 31
  %11 = load ptr, ptr %10, align 8
  %12 = icmp eq ptr %11, null
  br i1 %12, label %13, label %14

13:                                               ; preds = %2
  br label %126

14:                                               ; preds = %2
  %15 = load float, ptr %4, align 4
  %16 = load ptr, ptr %3, align 8
  %17 = getelementptr inbounds %struct.Abc_Ntk_t_, ptr %16, i32 0, i32 31
  %18 = load ptr, ptr %17, align 8
  %19 = getelementptr inbounds %struct.Abc_ManTime_t_, ptr %18, i32 0, i32 0
  %20 = getelementptr inbounds %struct.Abc_Time_t_, ptr %19, i32 0, i32 1
  %21 = load float, ptr %20, align 4
  %22 = fmul float %21, %15
  store float %22, ptr %20, align 4
  %23 = load float, ptr %4, align 4
  %24 = load ptr, ptr %3, align 8
  %25 = getelementptr inbounds %struct.Abc_Ntk_t_, ptr %24, i32 0, i32 31
  %26 = load ptr, ptr %25, align 8
  %27 = getelementptr inbounds %struct.Abc_ManTime_t_, ptr %26, i32 0, i32 0
  %28 = getelementptr inbounds %struct.Abc_Time_t_, ptr %27, i32 0, i32 0
  %29 = load float, ptr %28, align 8
  %30 = fmul float %29, %23
  store float %30, ptr %28, align 8
  %31 = load float, ptr %4, align 4
  %32 = load ptr, ptr %3, align 8
  %33 = getelementptr inbounds %struct.Abc_Ntk_t_, ptr %32, i32 0, i32 31
  %34 = load ptr, ptr %33, align 8
  %35 = getelementptr inbounds %struct.Abc_ManTime_t_, ptr %34, i32 0, i32 1
  %36 = getelementptr inbounds %struct.Abc_Time_t_, ptr %35, i32 0, i32 1
  %37 = load float, ptr %36, align 4
  %38 = fmul float %37, %31
  store float %38, ptr %36, align 4
  %39 = load float, ptr %4, align 4
  %40 = load ptr, ptr %3, align 8
  %41 = getelementptr inbounds %struct.Abc_Ntk_t_, ptr %40, i32 0, i32 31
  %42 = load ptr, ptr %41, align 8
  %43 = getelementptr inbounds %struct.Abc_ManTime_t_, ptr %42, i32 0, i32 1
  %44 = getelementptr inbounds %struct.Abc_Time_t_, ptr %43, i32 0, i32 0
  %45 = load float, ptr %44, align 8
  %46 = fmul float %45, %39
  store float %46, ptr %44, align 8
  %47 = load ptr, ptr %3, align 8
  %48 = getelementptr inbounds %struct.Abc_Ntk_t_, ptr %47, i32 0, i32 31
  %49 = load ptr, ptr %48, align 8
  %50 = getelementptr inbounds %struct.Abc_ManTime_t_, ptr %49, i32 0, i32 2
  %51 = load ptr, ptr %50, align 8
  %52 = getelementptr inbounds %struct.Vec_Ptr_t_, ptr %51, i32 0, i32 2
  %53 = load ptr, ptr %52, align 8
  store ptr %53, ptr %6, align 8
  store i32 0, ptr %8, align 4
  br label %54

54:                                               ; preds = %83, %14
  %55 = load i32, ptr %8, align 4
  %56 = load ptr, ptr %3, align 8
  %57 = call i32 @Abc_NtkCiNum(ptr noundef %56)
  %58 = icmp slt i32 %55, %57
  br i1 %58, label %59, label %63

59:                                               ; preds = %54
  %60 = load ptr, ptr %3, align 8
  %61 = load i32, ptr %8, align 4
  %62 = call ptr @Abc_NtkCi(ptr noundef %60, i32 noundef %61)
  store ptr %62, ptr %5, align 8
  br label %63

63:                                               ; preds = %59, %54
  %64 = phi i1 [ false, %54 ], [ true, %59 ]
  br i1 %64, label %65, label %86

65:                                               ; preds = %63
  %66 = load ptr, ptr %6, align 8
  %67 = load ptr, ptr %5, align 8
  %68 = getelementptr inbounds %struct.Abc_Obj_t_, ptr %67, i32 0, i32 2
  %69 = load i32, ptr %68, align 8
  %70 = sext i32 %69 to i64
  %71 = getelementptr inbounds ptr, ptr %66, i64 %70
  %72 = load ptr, ptr %71, align 8
  store ptr %72, ptr %7, align 8
  %73 = load float, ptr %4, align 4
  %74 = load ptr, ptr %7, align 8
  %75 = getelementptr inbounds %struct.Abc_Time_t_, ptr %74, i32 0, i32 1
  %76 = load float, ptr %75, align 4
  %77 = fmul float %76, %73
  store float %77, ptr %75, align 4
  %78 = load float, ptr %4, align 4
  %79 = load ptr, ptr %7, align 8
  %80 = getelementptr inbounds %struct.Abc_Time_t_, ptr %79, i32 0, i32 0
  %81 = load float, ptr %80, align 4
  %82 = fmul float %81, %78
  store float %82, ptr %80, align 4
  br label %83

83:                                               ; preds = %65
  %84 = load i32, ptr %8, align 4
  %85 = add nsw i32 %84, 1
  store i32 %85, ptr %8, align 4
  br label %54, !llvm.loop !19

86:                                               ; preds = %63
  %87 = load ptr, ptr %3, align 8
  %88 = getelementptr inbounds %struct.Abc_Ntk_t_, ptr %87, i32 0, i32 31
  %89 = load ptr, ptr %88, align 8
  %90 = getelementptr inbounds %struct.Abc_ManTime_t_, ptr %89, i32 0, i32 3
  %91 = load ptr, ptr %90, align 8
  %92 = getelementptr inbounds %struct.Vec_Ptr_t_, ptr %91, i32 0, i32 2
  %93 = load ptr, ptr %92, align 8
  store ptr %93, ptr %6, align 8
  store i32 0, ptr %8, align 4
  br label %94

94:                                               ; preds = %123, %86
  %95 = load i32, ptr %8, align 4
  %96 = load ptr, ptr %3, align 8
  %97 = call i32 @Abc_NtkCoNum(ptr noundef %96)
  %98 = icmp slt i32 %95, %97
  br i1 %98, label %99, label %103

99:                                               ; preds = %94
  %100 = load ptr, ptr %3, align 8
  %101 = load i32, ptr %8, align 4
  %102 = call ptr @Abc_NtkCo(ptr noundef %100, i32 noundef %101)
  store ptr %102, ptr %5, align 8
  br label %103

103:                                              ; preds = %99, %94
  %104 = phi i1 [ false, %94 ], [ true, %99 ]
  br i1 %104, label %105, label %126

105:                                              ; preds = %103
  %106 = load ptr, ptr %6, align 8
  %107 = load ptr, ptr %5, align 8
  %108 = getelementptr inbounds %struct.Abc_Obj_t_, ptr %107, i32 0, i32 2
  %109 = load i32, ptr %108, align 8
  %110 = sext i32 %109 to i64
  %111 = getelementptr inbounds ptr, ptr %106, i64 %110
  %112 = load ptr, ptr %111, align 8
  store ptr %112, ptr %7, align 8
  %113 = load float, ptr %4, align 4
  %114 = load ptr, ptr %7, align 8
  %115 = getelementptr inbounds %struct.Abc_Time_t_, ptr %114, i32 0, i32 1
  %116 = load float, ptr %115, align 4
  %117 = fmul float %116, %113
  store float %117, ptr %115, align 4
  %118 = load float, ptr %4, align 4
  %119 = load ptr, ptr %7, align 8
  %120 = getelementptr inbounds %struct.Abc_Time_t_, ptr %119, i32 0, i32 0
  %121 = load float, ptr %120, align 4
  %122 = fmul float %121, %118
  store float %122, ptr %120, align 4
  br label %123

123:                                              ; preds = %105
  %124 = load i32, ptr %8, align 4
  %125 = add nsw i32 %124, 1
  store i32 %125, ptr %8, align 4
  br label %94, !llvm.loop !20

126:                                              ; preds = %103, %13
  ret void
}