; Function Attrs: nofree norecurse nosync nounwind memory(readwrite, inaccessiblemem: none) uwtable
define void @Abc_NtkTimeScale(ptr noundef readonly captures(none) %0, float noundef %1) local_unnamed_addr #6 {
  %3 = getelementptr inbounds nuw i8, ptr %0, i64 264
  %4 = load ptr, ptr %3, align 8
  %5 = icmp eq ptr %4, null
  br i1 %5, label %.critedge2, label %6

6:                                                ; preds = %2
  %7 = getelementptr inbounds nuw i8, ptr %4, i64 4
  %8 = load float, ptr %7, align 4
  %9 = fmul float %1, %8
  store float %9, ptr %7, align 4
  %10 = load ptr, ptr %3, align 8
  %11 = load float, ptr %10, align 8
  %12 = fmul float %1, %11
  store float %12, ptr %10, align 8
  %13 = load ptr, ptr %3, align 8
  %14 = getelementptr inbounds nuw i8, ptr %13, i64 12
  %15 = load float, ptr %14, align 4
  %16 = fmul float %1, %15
  store float %16, ptr %14, align 4
  %17 = load ptr, ptr %3, align 8
  %18 = getelementptr inbounds nuw i8, ptr %17, i64 8
  %19 = load float, ptr %18, align 8
  %20 = fmul float %1, %19
  store float %20, ptr %18, align 8
  %21 = load ptr, ptr %3, align 8
  %22 = getelementptr inbounds nuw i8, ptr %21, i64 16
  %23 = load ptr, ptr %22, align 8
  %24 = getelementptr inbounds nuw i8, ptr %23, i64 8
  %25 = load ptr, ptr %24, align 8
  %26 = getelementptr i8, ptr %0, i64 56
  %.val38 = load ptr, ptr %26, align 8
  %27 = getelementptr i8, ptr %.val38, i64 4
  %.val.val39 = load i32, ptr %27, align 4
  %28 = icmp sgt i32 %.val.val39, 0
  br i1 %28, label %.lr.ph, label %.critedge

.lr.ph:                                           ; preds = %6, %.lr.ph
  %indvars.iv = phi i64 [ %indvars.iv.next, %.lr.ph ], [ 0, %6 ]
  %.val41 = phi ptr [ %.val, %.lr.ph ], [ %.val38, %6 ]
  %29 = getelementptr i8, ptr %.val41, i64 8
  %.val35.val = load ptr, ptr %29, align 8
  %30 = getelementptr inbounds nuw ptr, ptr %.val35.val, i64 %indvars.iv
  %31 = load ptr, ptr %30, align 8
  %32 = getelementptr inbounds nuw i8, ptr %31, i64 16
  %33 = load i32, ptr %32, align 8
  %34 = sext i32 %33 to i64
  %35 = getelementptr inbounds ptr, ptr %25, i64 %34
  %36 = load ptr, ptr %35, align 8
  %37 = getelementptr inbounds nuw i8, ptr %36, i64 4
  %38 = load float, ptr %37, align 4
  %39 = fmul float %1, %38
  store float %39, ptr %37, align 4
  %40 = load float, ptr %36, align 4
  %41 = fmul float %1, %40
  store float %41, ptr %36, align 4
  %indvars.iv.next = add nuw nsw i64 %indvars.iv, 1
  %.val = load ptr, ptr %26, align 8
  %42 = getelementptr i8, ptr %.val, i64 4
  %.val.val = load i32, ptr %42, align 4
  %43 = sext i32 %.val.val to i64
  %44 = icmp slt i64 %indvars.iv.next, %43
  br i1 %44, label %.lr.ph, label %.critedge.loopexit, !llvm.loop !19

.critedge.loopexit:                               ; preds = %.lr.ph
  %.pre = load ptr, ptr %3, align 8
  br label %.critedge

.critedge:                                        ; preds = %.critedge.loopexit, %6
  %45 = phi ptr [ %.pre, %.critedge.loopexit ], [ %21, %6 ]
  %46 = getelementptr inbounds nuw i8, ptr %45, i64 24
  %47 = load ptr, ptr %46, align 8
  %48 = getelementptr inbounds nuw i8, ptr %47, i64 8
  %49 = load ptr, ptr %48, align 8
  %50 = getelementptr i8, ptr %0, i64 64
  %.val3642 = load ptr, ptr %50, align 8
  %51 = getelementptr i8, ptr %.val3642, i64 4
  %.val36.val43 = load i32, ptr %51, align 4
  %52 = icmp sgt i32 %.val36.val43, 0
  br i1 %52, label %.lr.ph46, label %.critedge2

.lr.ph46:                                         ; preds = %.critedge, %.lr.ph46
  %indvars.iv48 = phi i64 [ %indvars.iv.next49, %.lr.ph46 ], [ 0, %.critedge ]
  %.val3645 = phi ptr [ %.val36, %.lr.ph46 ], [ %.val3642, %.critedge ]
  %53 = getelementptr i8, ptr %.val3645, i64 8
  %.val37.val = load ptr, ptr %53, align 8
  %54 = getelementptr inbounds nuw ptr, ptr %.val37.val, i64 %indvars.iv48
  %55 = load ptr, ptr %54, align 8
  %56 = getelementptr inbounds nuw i8, ptr %55, i64 16
  %57 = load i32, ptr %56, align 8
  %58 = sext i32 %57 to i64
  %59 = getelementptr inbounds ptr, ptr %49, i64 %58
  %60 = load ptr, ptr %59, align 8
  %61 = getelementptr inbounds nuw i8, ptr %60, i64 4
  %62 = load float, ptr %61, align 4
  %63 = fmul float %1, %62
  store float %63, ptr %61, align 4
  %64 = load float, ptr %60, align 4
  %65 = fmul float %1, %64
  store float %65, ptr %60, align 4
  %indvars.iv.next49 = add nuw nsw i64 %indvars.iv48, 1
  %.val36 = load ptr, ptr %50, align 8
  %66 = getelementptr i8, ptr %.val36, i64 4
  %.val36.val = load i32, ptr %66, align 4
  %67 = sext i32 %.val36.val to i64
  %68 = icmp slt i64 %indvars.iv.next49, %67
  br i1 %68, label %.lr.ph46, label %.critedge2, !llvm.loop !20

.critedge2:                                       ; preds = %.lr.ph46, %.critedge, %2
  ret void
}